target datalayout = "e-m:e-p270:32:32-p271:32:32-p272:64:64-i64:64-i128:128-f80:128-n8:16:32:64-S128"
target triple = "x86_64-pc-linux-gnu"

%struct.H5C_class_t = type { i32, ptr, i32, i32, ptr, ptr, ptr, ptr, ptr, ptr, ptr, ptr, ptr, ptr }
%struct.H5HL_t = type { i64, i64, i64, i64, i8, ptr, ptr, i64, i64, i64, ptr, i64, i64, ptr }
%struct.H5HL_cache_prfx_ud_t = type { i64, i64, i64, i64 }
%struct.H5HL_prfx_t = type { %struct.H5C_cache_entry_t, ptr }
%struct.H5C_cache_entry_t = type { ptr, i64, i64, ptr, i8, ptr, i8, i8, i8, i8, i32, i8, i8, i8, i8, i8, i32, ptr, i32, i32, i32, i32, i32, i8, i8, ptr, ptr, ptr, ptr, ptr, ptr, i8, i32, i8, i64, ptr, i64, i64, i32, i8, i32, i32, i8, ptr, ptr, ptr }

@H5HL_init_g = global i8 0, align 1
@H5_libterm_g = external global i8, align 1
@.str.2 = private unnamed_addr constant [98 x i8] c"generated/home/dtcxzyw/WorkSpace/Projects/compilers/llvm-opt-benchmark/bench/hdf5/hdf5/src/H5HL.c\00", align 1
@H5E_HEAP_g = external global i64, align 8
@H5AC_LHEAP_PRFX = external constant [1 x %struct.H5C_class_t], align 16
@H5E_CANTPROTECT_g = external global i64, align 8
@.str.10 = private unnamed_addr constant [27 x i8] c"unable to load heap prefix\00", align 1
@H5AC_LHEAP_DBLK = external constant [1 x %struct.H5C_class_t], align 16
@.str.11 = private unnamed_addr constant [31 x i8] c"unable to load heap data block\00", align 1
@H5E_CANTUNPROTECT_g = external global i64, align 8
@.str.13 = private unnamed_addr constant [36 x i8] c"unable to release local heap prefix\00", align 1
@.str.14 = private unnamed_addr constant [40 x i8] c"unable to release local heap data block\00", align 1
@__func__.H5HL_delete = private unnamed_addr constant [12 x i8] c"H5HL_delete\00", align 1

; Function Attrs: nounwind uwtable
define i32 @H5HL_delete(ptr noundef %0, i64 noundef %1) #0 {
  %3 = alloca ptr, align 8
  %4 = alloca i64, align 8
  %5 = alloca ptr, align 8
  %6 = alloca %struct.H5HL_cache_prfx_ud_t, align 8
  %7 = alloca ptr, align 8
  %8 = alloca ptr, align 8
  %9 = alloca i32, align 4
  %10 = alloca i32, align 4
  %11 = alloca i8, align 1
  store ptr %0, ptr %3, align 8, !tbaa !3
  store i64 %1, ptr %4, align 8, !tbaa !8
  call void @llvm.lifetime.start.p0(i64 8, ptr %5) #6
  store ptr null, ptr %5, align 8, !tbaa !12
  call void @llvm.lifetime.start.p0(i64 32, ptr %6) #6
  call void @llvm.lifetime.start.p0(i64 8, ptr %7) #6
  store ptr null, ptr %7, align 8, !tbaa !14
  call void @llvm.lifetime.start.p0(i64 8, ptr %8) #6
  store ptr null, ptr %8, align 8, !tbaa !39
  call void @llvm.lifetime.start.p0(i64 4, ptr %9) #6
  store i32 0, ptr %9, align 4, !tbaa !16
  call void @llvm.lifetime.start.p0(i64 4, ptr %10) #6
  store i32 0, ptr %10, align 4, !tbaa !16
  call void @llvm.lifetime.start.p0(i64 1, ptr %11) #6
  store i8 0, ptr %11, align 1, !tbaa !18
  %12 = load i8, ptr @H5HL_init_g, align 1, !tbaa !18, !range !20, !noundef !21
  %13 = trunc i8 %12 to i1
  br i1 %13, label %18, label %14

14:                                               ; preds = %2
  %15 = load i8, ptr @H5_libterm_g, align 1, !tbaa !18, !range !20, !noundef !21
  %16 = trunc i8 %15 to i1
  %17 = xor i1 %16, true
  br label %18

18:                                               ; preds = %14, %2
  %19 = phi i1 [ false, %2 ], [ %17, %14 ]
  %20 = xor i1 %19, true
  %21 = xor i1 %20, true
  %22 = zext i1 %21 to i32
  %23 = sext i32 %22 to i64
  %24 = call i64 @llvm.expect.i64(i64 %23, i64 0)
  %25 = icmp ne i64 %24, 0
  br i1 %25, label %26, label %27

26:                                               ; preds = %18
  store i8 1, ptr @H5HL_init_g, align 1, !tbaa !18
  br label %27

27:                                               ; preds = %26, %18
  %28 = load i8, ptr @H5HL_init_g, align 1, !tbaa !18, !range !20, !noundef !21
  %29 = trunc i8 %28 to i1
  br i1 %29, label %34, label %30

30:                                               ; preds = %27
  %31 = load i8, ptr @H5_libterm_g, align 1, !tbaa !18, !range !20, !noundef !21
  %32 = trunc i8 %31 to i1
  %33 = xor i1 %32, true
  br label %34

34:                                               ; preds = %30, %27
  %35 = phi i1 [ true, %27 ], [ %33, %30 ]
  %36 = xor i1 %35, true
  %37 = xor i1 %36, true
  %38 = zext i1 %37 to i32
  %39 = sext i32 %38 to i64
  %40 = call i64 @llvm.expect.i64(i64 %39, i64 1)
  %41 = icmp ne i64 %40, 0
  br i1 %41, label %42, label %194

42:                                               ; preds = %34
  %43 = load ptr, ptr %3, align 8, !tbaa !3
  %44 = call zeroext i8 @H5F_sizeof_size(ptr noundef %43)
  %45 = zext i8 %44 to i64
  %46 = getelementptr inbounds nuw %struct.H5HL_cache_prfx_ud_t, ptr %6, i32 0, i32 0
  store i64 %45, ptr %46, align 8, !tbaa !40
  %47 = load ptr, ptr %3, align 8, !tbaa !3
  %48 = call zeroext i8 @H5F_sizeof_addr(ptr noundef %47)
  %49 = zext i8 %48 to i64
  %50 = getelementptr inbounds nuw %struct.H5HL_cache_prfx_ud_t, ptr %6, i32 0, i32 1
  store i64 %49, ptr %50, align 8, !tbaa !42
  %51 = load i64, ptr %4, align 8, !tbaa !8
  %52 = getelementptr inbounds nuw %struct.H5HL_cache_prfx_ud_t, ptr %6, i32 0, i32 2
  store i64 %51, ptr %52, align 8, !tbaa !43
  %53 = load ptr, ptr %3, align 8, !tbaa !3
  %54 = call zeroext i8 @H5F_sizeof_size(ptr noundef %53)
  %55 = zext i8 %54 to i32
  %56 = add i32 8, %55
  %57 = load ptr, ptr %3, align 8, !tbaa !3
  %58 = call zeroext i8 @H5F_sizeof_size(ptr noundef %57)
  %59 = zext i8 %58 to i32
  %60 = add i32 %56, %59
  %61 = load ptr, ptr %3, align 8, !tbaa !3
  %62 = call zeroext i8 @H5F_sizeof_addr(ptr noundef %61)
  %63 = zext i8 %62 to i32
  %64 = add i32 %60, %63
  %65 = add i32 %64, 7
  %66 = and i32 %65, -8
  %67 = zext i32 %66 to i64
  %68 = getelementptr inbounds nuw %struct.H5HL_cache_prfx_ud_t, ptr %6, i32 0, i32 3
  store i64 %67, ptr %68, align 8, !tbaa !44
  %69 = load ptr, ptr %3, align 8, !tbaa !3
  %70 = load i64, ptr %4, align 8, !tbaa !8
  %71 = call ptr @H5AC_protect(ptr noundef %69, ptr noundef @H5AC_LHEAP_PRFX, i64 noundef %70, ptr noundef %6, i32 noundef 0)
  store ptr %71, ptr %7, align 8, !tbaa !14
  %72 = icmp eq ptr null, %71
  br i1 %72, label %73, label %92

73:                                               ; preds = %42
  br label %74

74:                                               ; preds = %73
  br label %75

75:                                               ; preds = %74
  br label %76

76:                                               ; preds = %75
  %77 = load i64, ptr @H5E_HEAP_g, align 8, !tbaa !8
  %78 = load i64, ptr @H5E_CANTPROTECT_g, align 8, !tbaa !8
  %79 = call i32 (ptr, ptr, i32, i64, i64, ptr, ...) @H5E_printf_stack(ptr noundef @.str.2, ptr noundef @__func__.H5HL_delete, i32 noundef 871, i64 noundef %77, i64 noundef %78, ptr noundef @.str.10)
  br label %80

80:                                               ; preds = %76
  br label %81

81:                                               ; preds = %80
  store i8 1, ptr %11, align 1, !tbaa !18
  %82 = load i8, ptr %11, align 1, !tbaa !18, !range !20, !noundef !21
  %83 = trunc i8 %82 to i1
  %84 = zext i1 %83 to i8
  store i8 %84, ptr %11, align 1, !tbaa !18
  br label %85

85:                                               ; preds = %81
  br label %86

86:                                               ; preds = %85
  br label %87

87:                                               ; preds = %86
  store i32 -1, ptr %10, align 4, !tbaa !16
  br label %131

88:                                               ; No predecessors!
  br label %89

89:                                               ; preds = %88
  br label %90

90:                                               ; preds = %89
  br label %91

91:                                               ; preds = %90
  br label %92

92:                                               ; preds = %91, %42
  %93 = load ptr, ptr %7, align 8, !tbaa !14
  %94 = getelementptr inbounds nuw %struct.H5HL_prfx_t, ptr %93, i32 0, i32 1
  %95 = load ptr, ptr %94, align 8, !tbaa !45
  store ptr %95, ptr %5, align 8, !tbaa !12
  %96 = load ptr, ptr %5, align 8, !tbaa !12
  %97 = getelementptr inbounds nuw %struct.H5HL_t, ptr %96, i32 0, i32 4
  %98 = load i8, ptr %97, align 8, !tbaa !28, !range !20, !noundef !21
  %99 = trunc i8 %98 to i1
  br i1 %99, label %128, label %100

100:                                              ; preds = %92
  %101 = load ptr, ptr %3, align 8, !tbaa !3
  %102 = load ptr, ptr %5, align 8, !tbaa !12
  %103 = getelementptr inbounds nuw %struct.H5HL_t, ptr %102, i32 0, i32 11
  %104 = load i64, ptr %103, align 8, !tbaa !29
  %105 = load ptr, ptr %5, align 8, !tbaa !12
  %106 = call ptr @H5AC_protect(ptr noundef %101, ptr noundef @H5AC_LHEAP_DBLK, i64 noundef %104, ptr noundef %105, i32 noundef 0)
  store ptr %106, ptr %8, align 8, !tbaa !39
  %107 = icmp eq ptr null, %106
  br i1 %107, label %108, label %127

108:                                              ; preds = %100
  br label %109

109:                                              ; preds = %108
  br label %110

110:                                              ; preds = %109
  br label %111

111:                                              ; preds = %110
  %112 = load i64, ptr @H5E_HEAP_g, align 8, !tbaa !8
  %113 = load i64, ptr @H5E_CANTPROTECT_g, align 8, !tbaa !8
  %114 = call i32 (ptr, ptr, i32, i64, i64, ptr, ...) @H5E_printf_stack(ptr noundef @.str.2, ptr noundef @__func__.H5HL_delete, i32 noundef 881, i64 noundef %112, i64 noundef %113, ptr noundef @.str.11)
  br label %115

115:                                              ; preds = %111
  br label %116

116:                                              ; preds = %115
  store i8 1, ptr %11, align 1, !tbaa !18
  %117 = load i8, ptr %11, align 1, !tbaa !18, !range !20, !noundef !21
  %118 = trunc i8 %117 to i1
  %119 = zext i1 %118 to i8
  store i8 %119, ptr %11, align 1, !tbaa !18
  br label %120

120:                                              ; preds = %116
  br label %121

121:                                              ; preds = %120
  br label %122

122:                                              ; preds = %121
  store i32 -1, ptr %10, align 4, !tbaa !16
  br label %131

123:                                              ; No predecessors!
  br label %124

124:                                              ; preds = %123
  br label %125

125:                                              ; preds = %124
  br label %126

126:                                              ; preds = %125
  br label %127

127:                                              ; preds = %126, %100
  br label %128

128:                                              ; preds = %127, %92
  %129 = load i32, ptr %9, align 4, !tbaa !16
  %130 = or i32 %129, 259
  store i32 %130, ptr %9, align 4, !tbaa !16
  br label %131

131:                                              ; preds = %128, %122, %87
  %132 = load ptr, ptr %8, align 8, !tbaa !39
  %133 = icmp ne ptr %132, null
  br i1 %133, label %134, label %162

134:                                              ; preds = %131
  %135 = load ptr, ptr %5, align 8, !tbaa !12
  %136 = icmp ne ptr %135, null
  br i1 %136, label %137, label %162

137:                                              ; preds = %134
  %138 = load ptr, ptr %3, align 8, !tbaa !3
  %139 = load ptr, ptr %5, align 8, !tbaa !12
  %140 = getelementptr inbounds nuw %struct.H5HL_t, ptr %139, i32 0, i32 11
  %141 = load i64, ptr %140, align 8, !tbaa !29
  %142 = load ptr, ptr %8, align 8, !tbaa !39
  %143 = load i32, ptr %9, align 4, !tbaa !16
  %144 = call i32 @H5AC_unprotect(ptr noundef %138, ptr noundef @H5AC_LHEAP_DBLK, i64 noundef %141, ptr noundef %142, i32 noundef %143)
  %145 = icmp slt i32 %144, 0
  br i1 %145, label %146, label %162

146:                                              ; preds = %137
  br label %147

147:                                              ; preds = %146
  br label %148

148:                                              ; preds = %147
  br label %149

149:                                              ; preds = %148
  %150 = load i64, ptr @H5E_HEAP_g, align 8, !tbaa !8
  %151 = load i64, ptr @H5E_CANTUNPROTECT_g, align 8, !tbaa !8
  %152 = call i32 (ptr, ptr, i32, i64, i64, ptr, ...) @H5E_printf_stack(ptr noundef @.str.2, ptr noundef @__func__.H5HL_delete, i32 noundef 889, i64 noundef %150, i64 noundef %151, ptr noundef @.str.14)
  br label %153

153:                                              ; preds = %149
  br label %154

154:                                              ; preds = %153
  store i8 1, ptr %11, align 1, !tbaa !18
  %155 = load i8, ptr %11, align 1, !tbaa !18, !range !20, !noundef !21
  %156 = trunc i8 %155 to i1
  %157 = zext i1 %156 to i8
  store i8 %157, ptr %11, align 1, !tbaa !18
  br label %158

158:                                              ; preds = %154
  br label %159

159:                                              ; preds = %158
  store i32 -1, ptr %10, align 4, !tbaa !16
  br label %160

160:                                              ; preds = %159
  br label %161

161:                                              ; preds = %160
  br label %162

162:                                              ; preds = %161, %137, %134, %131
  %163 = load ptr, ptr %7, align 8, !tbaa !14
  %164 = icmp ne ptr %163, null
  br i1 %164, label %165, label %193

165:                                              ; preds = %162
  %166 = load ptr, ptr %5, align 8, !tbaa !12
  %167 = icmp ne ptr %166, null
  br i1 %167, label %168, label %193

168:                                              ; preds = %165
  %169 = load ptr, ptr %3, align 8, !tbaa !3
  %170 = load ptr, ptr %5, align 8, !tbaa !12
  %171 = getelementptr inbounds nuw %struct.H5HL_t, ptr %170, i32 0, i32 7
  %172 = load i64, ptr %171, align 8, !tbaa !27
  %173 = load ptr, ptr %7, align 8, !tbaa !14
  %174 = load i32, ptr %9, align 4, !tbaa !16
  %175 = call i32 @H5AC_unprotect(ptr noundef %169, ptr noundef @H5AC_LHEAP_PRFX, i64 noundef %172, ptr noundef %173, i32 noundef %174)
  %176 = icmp slt i32 %175, 0
  br i1 %176, label %177, label %193

177:                                              ; preds = %168
  br label %178

178:                                              ; preds = %177
  br label %179

179:                                              ; preds = %178
  br label %180

180:                                              ; preds = %179
  %181 = load i64, ptr @H5E_HEAP_g, align 8, !tbaa !8
  %182 = load i64, ptr @H5E_CANTUNPROTECT_g, align 8, !tbaa !8
  %183 = call i32 (ptr, ptr, i32, i64, i64, ptr, ...) @H5E_printf_stack(ptr noundef @.str.2, ptr noundef @__func__.H5HL_delete, i32 noundef 893, i64 noundef %181, i64 noundef %182, ptr noundef @.str.13)
  br label %184

184:                                              ; preds = %180
  br label %185

185:                                              ; preds = %184
  store i8 1, ptr %11, align 1, !tbaa !18
  %186 = load i8, ptr %11, align 1, !tbaa !18, !range !20, !noundef !21
  %187 = trunc i8 %186 to i1
  %188 = zext i1 %187 to i8
  store i8 %188, ptr %11, align 1, !tbaa !18
  br label %189

189:                                              ; preds = %185
  br label %190

190:                                              ; preds = %189
  store i32 -1, ptr %10, align 4, !tbaa !16
  br label %191

191:                                              ; preds = %190
  br label %192

192:                                              ; preds = %191
  br label %193

193:                                              ; preds = %192, %168, %165, %162
  br label %194

194:                                              ; preds = %193, %34
  %195 = load i32, ptr %10, align 4, !tbaa !16
  call void @llvm.lifetime.end.p0(i64 1, ptr %11) #6
  call void @llvm.lifetime.end.p0(i64 4, ptr %10) #6
  call void @llvm.lifetime.end.p0(i64 4, ptr %9) #6
  call void @llvm.lifetime.end.p0(i64 8, ptr %8) #6
  call void @llvm.lifetime.end.p0(i64 8, ptr %7) #6
  call void @llvm.lifetime.end.p0(i64 32, ptr %6) #6
  call void @llvm.lifetime.end.p0(i64 8, ptr %5) #6
  ret i32 %195
}