; Function Attrs: nounwind uwtable
define range(i32 -1, 1) i32 @H5HL_delete(ptr noundef %0, i64 noundef %1) local_unnamed_addr #0 {
  %3 = alloca %struct.H5HL_cache_prfx_ud_t, align 8
  call void @llvm.lifetime.start.p0(i64 32, ptr nonnull %3) #7
  %4 = load i8, ptr @H5HL_init_g, align 1, !tbaa !3, !range !7, !noundef !8
  %5 = trunc nuw i8 %4 to i1
  %6 = load i8, ptr @H5_libterm_g, align 1, !range !7
  %7 = trunc nuw i8 %6 to i1
  %8 = select i1 %5, i1 true, i1 %7
  br i1 %8, label %9, label %.thread, !prof !9

.thread:                                          ; preds = %2
  store i8 1, ptr @H5HL_init_g, align 1, !tbaa !3
  br label %12

9:                                                ; preds = %2
  %10 = xor i1 %7, true
  %11 = select i1 %5, i1 true, i1 %10
  br i1 %11, label %12, label %72, !prof !10

12:                                               ; preds = %.thread, %9
  %13 = tail call zeroext i8 @H5F_sizeof_size(ptr noundef %0) #7
  %14 = zext i8 %13 to i64
  store i64 %14, ptr %3, align 8, !tbaa !30
  %15 = tail call zeroext i8 @H5F_sizeof_addr(ptr noundef %0) #7
  %16 = zext i8 %15 to i64
  %17 = getelementptr inbounds nuw i8, ptr %3, i64 8
  store i64 %16, ptr %17, align 8, !tbaa !32
  %18 = getelementptr inbounds nuw i8, ptr %3, i64 16
  store i64 %1, ptr %18, align 8, !tbaa !33
  %19 = tail call zeroext i8 @H5F_sizeof_size(ptr noundef %0) #7
  %20 = zext i8 %19 to i64
  %21 = tail call zeroext i8 @H5F_sizeof_size(ptr noundef %0) #7
  %22 = zext i8 %21 to i64
  %23 = tail call zeroext i8 @H5F_sizeof_addr(ptr noundef %0) #7
  %24 = zext i8 %23 to i64
  %25 = add nuw nsw i64 %20, 15
  %26 = add nuw nsw i64 %25, %22
  %27 = add nuw nsw i64 %26, %24
  %28 = and i64 %27, 2040
  %29 = getelementptr inbounds nuw i8, ptr %3, i64 24
  store i64 %28, ptr %29, align 8, !tbaa !34
  %30 = call ptr @H5AC_protect(ptr noundef %0, ptr noundef nonnull @H5AC_LHEAP_PRFX, i64 noundef %1, ptr noundef nonnull %3, i32 noundef 0) #7
  %31 = icmp eq ptr %30, null
  br i1 %31, label %32, label %36

32:                                               ; preds = %12
  %33 = load i64, ptr @H5E_HEAP_g, align 8, !tbaa !20
  %34 = load i64, ptr @H5E_CANTPROTECT_g, align 8, !tbaa !20
  %35 = call i32 (ptr, ptr, i32, i64, i64, ptr, ...) @H5E_printf_stack(ptr noundef nonnull @.str.2, ptr noundef nonnull @__func__.H5HL_delete, i32 noundef 871, i64 noundef %33, i64 noundef %34, ptr noundef nonnull @.str.10) #7
  br label %.thread41

36:                                               ; preds = %12
  %37 = getelementptr inbounds nuw i8, ptr %30, i64 248
  %38 = load ptr, ptr %37, align 8, !tbaa !35
  %39 = getelementptr inbounds nuw i8, ptr %38, i64 32
  %40 = load i8, ptr %39, align 8, !tbaa !21, !range !7, !noundef !8
  %41 = trunc nuw i8 %40 to i1
  br i1 %41, label %.thread41, label %42

42:                                               ; preds = %36
  %43 = getelementptr inbounds nuw i8, ptr %38, i64 88
  %44 = load i64, ptr %43, align 8, !tbaa !22
  %45 = call ptr @H5AC_protect(ptr noundef %0, ptr noundef nonnull @H5AC_LHEAP_DBLK, i64 noundef %44, ptr noundef nonnull %38, i32 noundef 0) #7
  %46 = icmp eq ptr %45, null
  br i1 %46, label %47, label %52

47:                                               ; preds = %42
  %48 = load i64, ptr @H5E_HEAP_g, align 8, !tbaa !20
  %49 = load i64, ptr @H5E_CANTPROTECT_g, align 8, !tbaa !20
  %50 = call i32 (ptr, ptr, i32, i64, i64, ptr, ...) @H5E_printf_stack(ptr noundef nonnull @.str.2, ptr noundef nonnull @__func__.H5HL_delete, i32 noundef 881, i64 noundef %48, i64 noundef %49, ptr noundef nonnull @.str.11) #7
  br label %.thread41

.thread41:                                        ; preds = %32, %47, %36
  %.036.ph = phi ptr [ %38, %36 ], [ %38, %47 ], [ null, %32 ]
  %.033.ph = phi i32 [ 259, %36 ], [ 0, %47 ], [ 0, %32 ]
  %.1.ph = phi i32 [ 0, %36 ], [ -1, %47 ], [ -1, %32 ]
  %51 = icmp ne ptr %.036.ph, null
  br label %60

52:                                               ; preds = %42
  %53 = load i64, ptr %43, align 8, !tbaa !22
  %54 = call i32 @H5AC_unprotect(ptr noundef %0, ptr noundef nonnull @H5AC_LHEAP_DBLK, i64 noundef %53, ptr noundef nonnull %45, i32 noundef 259) #7
  %55 = icmp slt i32 %54, 0
  br i1 %55, label %56, label %60

56:                                               ; preds = %52
  %57 = load i64, ptr @H5E_HEAP_g, align 8, !tbaa !20
  %58 = load i64, ptr @H5E_CANTUNPROTECT_g, align 8, !tbaa !20
  %59 = call i32 (ptr, ptr, i32, i64, i64, ptr, ...) @H5E_printf_stack(ptr noundef nonnull @.str.2, ptr noundef nonnull @__func__.H5HL_delete, i32 noundef 889, i64 noundef %57, i64 noundef %58, ptr noundef nonnull @.str.14) #7
  br label %60

60:                                               ; preds = %.thread41, %56, %52
  %61 = phi i1 [ true, %56 ], [ true, %52 ], [ %51, %.thread41 ]
  %.03348 = phi i32 [ 259, %56 ], [ 259, %52 ], [ %.033.ph, %.thread41 ]
  %.03647 = phi ptr [ %38, %56 ], [ %38, %52 ], [ %.036.ph, %.thread41 ]
  %.2 = phi i32 [ -1, %56 ], [ 0, %52 ], [ %.1.ph, %.thread41 ]
  %62 = icmp ne ptr %30, null
  %or.cond3 = and i1 %62, %61
  br i1 %or.cond3, label %63, label %72

63:                                               ; preds = %60
  %64 = getelementptr inbounds nuw i8, ptr %.03647, i64 56
  %65 = load i64, ptr %64, align 8, !tbaa !19
  %66 = call i32 @H5AC_unprotect(ptr noundef %0, ptr noundef nonnull @H5AC_LHEAP_PRFX, i64 noundef %65, ptr noundef nonnull %30, i32 noundef %.03348) #7
  %67 = icmp slt i32 %66, 0
  br i1 %67, label %68, label %72

68:                                               ; preds = %63
  %69 = load i64, ptr @H5E_HEAP_g, align 8, !tbaa !20
  %70 = load i64, ptr @H5E_CANTUNPROTECT_g, align 8, !tbaa !20
  %71 = call i32 (ptr, ptr, i32, i64, i64, ptr, ...) @H5E_printf_stack(ptr noundef nonnull @.str.2, ptr noundef nonnull @__func__.H5HL_delete, i32 noundef 893, i64 noundef %69, i64 noundef %70, ptr noundef nonnull @.str.13) #7
  br label %72

72:                                               ; preds = %60, %63, %68, %9
  %.0 = phi i32 [ -1, %68 ], [ %.2, %63 ], [ %.2, %60 ], [ 0, %9 ]
  call void @llvm.lifetime.end.p0(i64 32, ptr nonnull %3) #7
  ret i32 %.0
}